
imm-test.o:     file format elf32-bigmips

SYMBOL TABLE:
00000000 l    d  .text	00000000 
00000000 l    d  .data	00000000 
00000000 l    d  .bss	00000000 
00000000 l    d  .mdebug.abi32	00000000 
00000000 l    d  .reginfo	00000000 
00000000 l    d  .pdr	00000000 
00000000 l    df *ABS*	00000000 imm-test.c
00000000 g     F .text	00000000 falsep
0000000c g     F .text	00000000 ntc_falsep
00000014 g     F .text	00000000 nullp
00000020 g     F .text	00000000 ntc_nullp
0000002c g     F .text	00000000 consp
00000038 g     F .text	00000000 ntc_consp
00000058 g     F .text	00000000 memq
00000090 g     F .text	00000000 ntc_memq
000000dc g     F .text	00000000 and
00000110 g     F .text	00000000 ntc_and
00000004       O *COM*	00000004 scm_ntc_true


Disassembly of section .text:

00000000 <falsep>:
   0:	38820006 	xori	v0,a0,0x6
   4:	03e00008 	jr	ra
   8:	2c420001 	sltiu	v0,v0,1

0000000c <ntc_falsep>:
   c:	03e00008 	jr	ra
  10:	2c820001 	sltiu	v0,a0,1

00000014 <nullp>:
  14:	38820026 	xori	v0,a0,0x26
  18:	03e00008 	jr	ra
  1c:	2c420001 	sltiu	v0,v0,1

00000020 <ntc_nullp>:
  20:	38820002 	xori	v0,a0,0x2
  24:	03e00008 	jr	ra
  28:	2c420001 	sltiu	v0,v0,1

0000002c <consp>:
  2c:	30820006 	andi	v0,a0,0x6
  30:	03e00008 	jr	ra
  34:	2c420001 	sltiu	v0,v0,1

00000038 <ntc_consp>:
  38:	30820006 	andi	v0,a0,0x6
  3c:	14400004 	bnez	v0,50 <ntc_consp+0x18>
  40:	00001821 	move	v1,zero
  44:	10800002 	beqz	a0,50 <ntc_consp+0x18>
  48:	00000000 	nop
  4c:	24030001 	li	v1,1
  50:	03e00008 	jr	ra
  54:	00601021 	move	v0,v1

00000058 <memq>:
  58:	30a20006 	andi	v0,a1,0x6
  5c:	1440000a 	bnez	v0,88 <memq+0x30>
  60:	24030006 	li	v1,6
  64:	8ca20000 	lw	v0,0(a1)
  68:	00000000 	nop
  6c:	10440006 	beq	v0,a0,88 <memq+0x30>
  70:	00a01821 	move	v1,a1
  74:	8ca50004 	lw	a1,4(a1)
  78:	00000000 	nop
  7c:	30a20006 	andi	v0,a1,0x6
  80:	1040fff8 	beqz	v0,64 <memq+0xc>
  84:	24030006 	li	v1,6
  88:	03e00008 	jr	ra
  8c:	00601021 	move	v0,v1

00000090 <ntc_memq>:
  90:	30a20006 	andi	v0,a1,0x6
  94:	1440000f 	bnez	v0,d4 <ntc_memq+0x44>
  98:	00001821 	move	v1,zero
  9c:	10a0000d 	beqz	a1,d4 <ntc_memq+0x44>
  a0:	00000000 	nop
  a4:	8ca20000 	lw	v0,0(a1)
  a8:	00000000 	nop
  ac:	10440009 	beq	v0,a0,d4 <ntc_memq+0x44>
  b0:	00a01821 	move	v1,a1
  b4:	8ca50004 	lw	a1,4(a1)
  b8:	00000000 	nop
  bc:	30a20006 	andi	v0,a1,0x6
  c0:	14400003 	bnez	v0,d0 <ntc_memq+0x40>
  c4:	00000000 	nop
  c8:	14a0fff6 	bnez	a1,a4 <ntc_memq+0x14>
  cc:	00000000 	nop
  d0:	00001821 	move	v1,zero
  d4:	03e00008 	jr	ra
  d8:	00601021 	move	v0,v1

000000dc <and>:
  dc:	30820006 	andi	v0,a0,0x6
  e0:	14400009 	bnez	v0,108 <and+0x2c>
  e4:	240300a6 	li	v1,166
  e8:	24020006 	li	v0,6
  ec:	10820006 	beq	a0,v0,108 <and+0x2c>
  f0:	24030006 	li	v1,6
  f4:	8c840004 	lw	a0,4(a0)
  f8:	00000000 	nop
  fc:	30820006 	andi	v0,a0,0x6
 100:	1040fff9 	beqz	v0,e8 <and+0xc>
 104:	240300a6 	li	v1,166
 108:	03e00008 	jr	ra
 10c:	00601021 	move	v0,v1

00000110 <ntc_and>:
 110:	30820006 	andi	v0,a0,0x6
 114:	1440000a 	bnez	v0,140 <ntc_and+0x30>
 118:	00000000 	nop
 11c:	10800008 	beqz	a0,140 <ntc_and+0x30>
 120:	00000000 	nop
 124:	8c840004 	lw	a0,4(a0)
 128:	00000000 	nop
 12c:	30820006 	andi	v0,a0,0x6
 130:	14400003 	bnez	v0,140 <ntc_and+0x30>
 134:	00000000 	nop
 138:	1480fffa 	bnez	a0,124 <ntc_and+0x14>
 13c:	00000000 	nop
 140:	8f820000 	lw	v0,0(gp)
 144:	03e00008 	jr	ra
 148:	00000000 	nop
 14c:	00000000 	nop
