
imm-test.o:     file format elf32-m68k

SYMBOL TABLE:
00000000 l    df *ABS*	00000000 imm-test.c
00000000 l    d  .text	00000000 
00000000 l    d  .data	00000000 
00000000 l    d  .bss	00000000 
00000000 l    d  .comment	00000000 
00000000 g     F .text	0000000e falsep
0000000e g     F .text	0000000c ntc_falsep
0000001a g     F .text	0000000e nullp
00000028 g     F .text	0000000e ntc_nullp
00000036 g     F .text	0000000e consp
00000044 g     F .text	00000018 ntc_consp
0000005c g     F .text	0000002a memq
00000086 g     F .text	00000032 ntc_memq
000000b8 g     F .text	00000026 and
000000de g     F .text	0000002e ntc_and
00000004       O *COM*	00000002 scm_ntc_true


Disassembly of section .text:

00000000 <falsep>:
   0:	7006           	moveq #6,%d0
   2:	b0af 0004      	cmpl %sp@(4),%d0
   6:	57c0           	seq %d0
   8:	49c0           	extbl %d0
   a:	4480           	negl %d0
   c:	4e75           	rts

0000000e <ntc_falsep>:
   e:	4aaf 0004      	tstl %sp@(4)
  12:	57c0           	seq %d0
  14:	49c0           	extbl %d0
  16:	4480           	negl %d0
  18:	4e75           	rts

0000001a <nullp>:
  1a:	7026           	moveq #38,%d0
  1c:	b0af 0004      	cmpl %sp@(4),%d0
  20:	57c0           	seq %d0
  22:	49c0           	extbl %d0
  24:	4480           	negl %d0
  26:	4e75           	rts

00000028 <ntc_nullp>:
  28:	7002           	moveq #2,%d0
  2a:	b0af 0004      	cmpl %sp@(4),%d0
  2e:	57c0           	seq %d0
  30:	49c0           	extbl %d0
  32:	4480           	negl %d0
  34:	4e75           	rts

00000036 <consp>:
  36:	7006           	moveq #6,%d0
  38:	c0af 0004      	andl %sp@(4),%d0
  3c:	57c0           	seq %d0
  3e:	49c0           	extbl %d0
  40:	4480           	negl %d0
  42:	4e75           	rts

00000044 <ntc_consp>:
  44:	222f 0004      	movel %sp@(4),%d1
  48:	91c8           	subal %a0,%a0
  4a:	7006           	moveq #6,%d0
  4c:	c081           	andl %d1,%d0
  4e:	6608           	bnes 58 <ntc_consp+0x14>
  50:	4a81           	tstl %d1
  52:	6704           	beqs 58 <ntc_consp+0x14>
  54:	307c 0001      	moveaw #1,%a0
  58:	2008           	movel %a0,%d0
  5a:	4e75           	rts

0000005c <memq>:
  5c:	206f 0004      	moveal %sp@(4),%a0
  60:	222f 0008      	movel %sp@(8),%d1
  64:	7006           	moveq #6,%d0
  66:	c081           	andl %d1,%d0
  68:	6612           	bnes 7c <memq+0x20>
  6a:	2241           	moveal %d1,%a1
  6c:	b1d1           	cmpal %a1@,%a0
  6e:	6710           	beqs 80 <memq+0x24>
  70:	2241           	moveal %d1,%a1
  72:	2229 0004      	movel %a1@(4),%d1
  76:	7006           	moveq #6,%d0
  78:	c081           	andl %d1,%d0
  7a:	67ee           	beqs 6a <memq+0xe>
  7c:	7006           	moveq #6,%d0
  7e:	4e75           	rts
  80:	2001           	movel %d1,%d0
  82:	4e75           	rts
  84:	4e71           	nop

00000086 <ntc_memq>:
  86:	206f 0004      	moveal %sp@(4),%a0
  8a:	222f 0008      	movel %sp@(8),%d1
  8e:	7006           	moveq #6,%d0
  90:	c081           	andl %d1,%d0
  92:	661a           	bnes ae <ntc_memq+0x28>
  94:	4a81           	tstl %d1
  96:	6716           	beqs ae <ntc_memq+0x28>
  98:	2241           	moveal %d1,%a1
  9a:	b1d1           	cmpal %a1@,%a0
  9c:	6714           	beqs b2 <ntc_memq+0x2c>
  9e:	2241           	moveal %d1,%a1
  a0:	2229 0004      	movel %a1@(4),%d1
  a4:	7006           	moveq #6,%d0
  a6:	c081           	andl %d1,%d0
  a8:	6604           	bnes ae <ntc_memq+0x28>
  aa:	4a81           	tstl %d1
  ac:	66ea           	bnes 98 <ntc_memq+0x12>
  ae:	4280           	clrl %d0
  b0:	4e75           	rts
  b2:	2001           	movel %d1,%d0
  b4:	4e75           	rts
  b6:	4e71           	nop

000000b8 <and>:
  b8:	2f02           	movel %d2,%sp@-
  ba:	222f 0008      	movel %sp@(8),%d1
  be:	7006           	moveq #6,%d0
  c0:	c081           	andl %d1,%d0
  c2:	6612           	bnes d6 <and+0x1e>
  c4:	7006           	moveq #6,%d0
  c6:	b081           	cmpl %d1,%d0
  c8:	6710           	beqs da <and+0x22>
  ca:	2041           	moveal %d1,%a0
  cc:	2228 0004      	movel %a0@(4),%d1
  d0:	7006           	moveq #6,%d0
  d2:	c081           	andl %d1,%d0
  d4:	67ee           	beqs c4 <and+0xc>
  d6:	7059           	moveq #89,%d0
  d8:	4600           	notb %d0
  da:	241f           	movel %sp@+,%d2
  dc:	4e75           	rts

000000de <ntc_and>:
  de:	222f 0004      	movel %sp@(4),%d1
  e2:	7006           	moveq #6,%d0
  e4:	c081           	andl %d1,%d0
  e6:	661a           	bnes 102 <ntc_and+0x24>
  e8:	4a81           	tstl %d1
  ea:	6716           	beqs 102 <ntc_and+0x24>
  ec:	4280           	clrl %d0
  ee:	4a81           	tstl %d1
  f0:	6716           	beqs 108 <ntc_and+0x2a>
  f2:	2041           	moveal %d1,%a0
  f4:	2228 0004      	movel %a0@(4),%d1
  f8:	7006           	moveq #6,%d0
  fa:	c081           	andl %d1,%d0
  fc:	6604           	bnes 102 <ntc_and+0x24>
  fe:	4a81           	tstl %d1
 100:	66ea           	bnes ec <ntc_and+0xe>
 102:	2039 0000 0000 	movel 0 <falsep>,%d0
 108:	4e75           	rts
 10a:	4e71           	nop
